target datalayout = "e-m:e-p270:32:32-p271:32:32-p272:64:64-i64:64-i128:128-f80:128-n8:16:32:64-S128"
target triple = "x86_64-pc-linux-gnu"

%struct.optstruct = type { ptr, ptr, ptr, i64, i32, i32, i32, i32, ptr, ptr, ptr }

@opts = dso_local global ptr null, align 8
@.str.28 = private unnamed_addr constant [13 x i8] c"MilterSocket\00", align 1
@.str.77 = private unnamed_addr constant [39 x i8] c"clamav-milter: milter_exit, signal %d\0A\00", align 1
@.str.78 = private unnamed_addr constant [33 x i8] c"Can't unlink the socket file %s\0A\00", align 1
@.str.79 = private unnamed_addr constant [22 x i8] c"Socket file removed.\0A\00", align 1
@.str.80 = private unnamed_addr constant [24 x i8] c"clamav-milter: stopped\0A\00", align 1

; Function Attrs: nounwind uwtable
define internal void @milter_exit(i32 noundef %0) #0 {
  %2 = alloca i32, align 4
  %3 = alloca ptr, align 8
  store i32 %0, ptr %2, align 4
  %4 = load i32, ptr %2, align 4
  %5 = call i32 (i32, ptr, ...) @logg(i32 noundef 2, ptr noundef @.str.77, i32 noundef %4)
  %6 = load ptr, ptr @opts, align 8
  %7 = call ptr @optget(ptr noundef %6, ptr noundef @.str.28)
  store ptr %7, ptr %3, align 8
  %8 = icmp ne ptr %7, null
  br i1 %8, label %9, label %23

9:                                                ; preds = %1
  %10 = load ptr, ptr %3, align 8
  %11 = getelementptr inbounds %struct.optstruct, ptr %10, i32 0, i32 2
  %12 = load ptr, ptr %11, align 8
  %13 = call i32 @unlink(ptr noundef %12) #6
  %14 = icmp eq i32 %13, -1
  br i1 %14, label %15, label %20

15:                                               ; preds = %9
  %16 = load ptr, ptr %3, align 8
  %17 = getelementptr inbounds %struct.optstruct, ptr %16, i32 0, i32 2
  %18 = load ptr, ptr %17, align 8
  %19 = call i32 (i32, ptr, ...) @logg(i32 noundef 5, ptr noundef @.str.78, ptr noundef %18)
  br label %22

20:                                               ; preds = %9
  %21 = call i32 (i32, ptr, ...) @logg(i32 noundef 0, ptr noundef @.str.79)
  br label %22

22:                                               ; preds = %20, %15
  br label %23

23:                                               ; preds = %22, %1
  %24 = call i32 (i32, ptr, ...) @logg(i32 noundef 0, ptr noundef @.str.80)
  %25 = load ptr, ptr @opts, align 8
  call void @optfree(ptr noundef %25)
  call void @logg_close()
  call void @cpool_free()
  call void @localnets_free()
  call void @allow_list_free()
  ret void
}