; Function Attrs: nounwind uwtable
define internal void @milter_exit(i32 noundef %0) #0 {
  %2 = tail call i32 (i32, ptr, ...) @logg(i32 noundef 2, ptr noundef nonnull @.str.77, i32 noundef %0) #13
  %3 = load ptr, ptr @opts, align 8
  %4 = tail call ptr @optget(ptr noundef %3, ptr noundef nonnull @.str.28) #13
  %.not = icmp eq ptr %4, null
  br i1 %.not, label %15, label %5

5:                                                ; preds = %1
  %6 = getelementptr inbounds i8, ptr %4, i64 16
  %7 = load ptr, ptr %6, align 8
  %8 = tail call i32 @unlink(ptr noundef %7) #13
  %9 = icmp eq i32 %8, -1
  br i1 %9, label %10, label %13

10:                                               ; preds = %5
  %11 = load ptr, ptr %6, align 8
  %12 = tail call i32 (i32, ptr, ...) @logg(i32 noundef 5, ptr noundef nonnull @.str.78, ptr noundef %11) #13
  br label %15

13:                                               ; preds = %5
  %14 = tail call i32 (i32, ptr, ...) @logg(i32 noundef 0, ptr noundef nonnull @.str.79) #13
  br label %15

15:                                               ; preds = %10, %13, %1
  %16 = tail call i32 (i32, ptr, ...) @logg(i32 noundef 0, ptr noundef nonnull @.str.80) #13
  %17 = load ptr, ptr @opts, align 8
  tail call void @optfree(ptr noundef %17) #13
  tail call void @logg_close() #13
  tail call void @cpool_free() #13
  tail call void @localnets_free() #13
  tail call void @allow_list_free() #13
  ret void
}